target datalayout = "e-m:e-p270:32:32-p271:32:32-p272:64:64-i64:64-i128:128-f80:128-n8:16:32:64-S128"
target triple = "x86_64-pc-linux-gnu"

%struct.rb_data_type_struct = type { ptr, %struct.anon, ptr, ptr, i64 }
%struct.anon = type { ptr, ptr, ptr, ptr, [1 x ptr] }

@ossl_ssl_type = constant %struct.rb_data_type_struct { ptr @.str, %struct.anon { ptr @ossl_ssl_mark, ptr @ossl_ssl_free, ptr null, ptr null, [1 x ptr] zeroinitializer }, ptr null, ptr null, i64 33 }, align 8
@rb_eRuntimeError = external global i64, align 8
@.str.267 = private unnamed_addr constant [23 x i8] c"SSL is not initialized\00", align 1
@.str.292 = private unnamed_addr constant [3 x i8] c": \00", align 1

; Function Attrs: inlinehint nounwind sspstrong uwtable
define internal i64 @rbimpl_strlen(ptr noundef nonnull %0) #4 {
  %2 = alloca ptr, align 8
  store ptr %0, ptr %2, align 8, !tbaa !16
  %3 = load ptr, ptr %2, align 8, !tbaa !16
  %4 = call i64 @strlen(ptr noundef %3) #21
  ret i64 %4
}

; Function Attrs: inlinehint nounwind sspstrong uwtable
define internal i64 @rbimpl_str_cat_cstr(i64 noundef %0, ptr noundef nonnull %1) #4 {
  %3 = alloca i64, align 8
  %4 = alloca ptr, align 8
  %5 = alloca i64, align 8
  store i64 %0, ptr %3, align 8, !tbaa !14
  store ptr %1, ptr %4, align 8, !tbaa !16
  call void @llvm.lifetime.start.p0(i64 8, ptr %5) #20
  %6 = load ptr, ptr %4, align 8, !tbaa !16
  %7 = call i64 @rbimpl_strlen(ptr noundef %6)
  store i64 %7, ptr %5, align 8, !tbaa !14
  %8 = load i64, ptr %3, align 8, !tbaa !14
  %9 = load ptr, ptr %4, align 8, !tbaa !16
  %10 = load i64, ptr %5, align 8, !tbaa !14
  %11 = call i64 @rb_str_cat(i64 noundef %8, ptr noundef %9, i64 noundef %10)
  call void @llvm.lifetime.end.p0(i64 8, ptr %5) #20
  ret i64 %11
}

; Function Attrs: nounwind sspstrong uwtable
define internal i64 @ossl_ssl_get_state(i64 noundef %0) #0 {
  %2 = alloca i64, align 8
  %3 = alloca ptr, align 8
  %4 = alloca i64, align 8
  store i64 %0, ptr %2, align 8, !tbaa !14
  call void @llvm.lifetime.start.p0(i64 8, ptr %3) #20
  call void @llvm.lifetime.start.p0(i64 8, ptr %4) #20
  br label %5

5:                                                ; preds = %1
  %6 = load i64, ptr %2, align 8, !tbaa !14
  %7 = call ptr @rb_check_typeddata(i64 noundef %6, ptr noundef @ossl_ssl_type)
  store ptr %7, ptr %3, align 8, !tbaa !10
  %8 = load ptr, ptr %3, align 8, !tbaa !10
  %9 = icmp ne ptr %8, null
  br i1 %9, label %12, label %10

10:                                               ; preds = %5
  %11 = load i64, ptr @rb_eRuntimeError, align 8, !tbaa !14
  call void (i64, ptr, ...) @ossl_raise(i64 noundef %11, ptr noundef @.str.267) #22
  unreachable

12:                                               ; preds = %5
  br label %13

13:                                               ; preds = %12
  br label %14

14:                                               ; preds = %13
  %15 = load ptr, ptr %3, align 8, !tbaa !10
  %16 = call ptr @SSL_state_string(ptr noundef %15)
  %17 = call i64 @rb_str_new_cstr(ptr noundef %16)
  store i64 %17, ptr %4, align 8, !tbaa !14
  %18 = call ptr @rb_ruby_verbose_ptr()
  %19 = load i64, ptr %18, align 8, !tbaa !14
  %20 = icmp ne i64 %19, 0
  br i1 %20, label %21, label %28

21:                                               ; preds = %14
  %22 = load i64, ptr %4, align 8, !tbaa !14
  %23 = call i64 @rbimpl_str_cat_cstr(i64 noundef %22, ptr noundef @.str.292)
  %24 = load i64, ptr %4, align 8, !tbaa !14
  %25 = load ptr, ptr %3, align 8, !tbaa !10
  %26 = call ptr @SSL_state_string_long(ptr noundef %25)
  %27 = call i64 @rb_str_cat_cstr(i64 noundef %24, ptr noundef %26)
  br label %28

28:                                               ; preds = %21, %14
  %29 = load i64, ptr %4, align 8, !tbaa !14
  call void @llvm.lifetime.end.p0(i64 8, ptr %4) #20
  call void @llvm.lifetime.end.p0(i64 8, ptr %3) #20
  ret i64 %29
}