; Function Attrs: nounwind sspstrong uwtable
define internal i64 @ossl_ssl_get_state(i64 noundef %0) #0 {
  %2 = tail call ptr @rb_check_typeddata(i64 noundef %0, ptr noundef nonnull @ossl_ssl_type) #9
  %.not = icmp eq ptr %2, null
  br i1 %.not, label %3, label %5

3:                                                ; preds = %1
  %4 = load i64, ptr @rb_eRuntimeError, align 8, !tbaa !10
  tail call void (i64, ptr, ...) @ossl_raise(i64 noundef %4, ptr noundef nonnull @.str.267) #10
  unreachable

5:                                                ; preds = %1
  %6 = tail call ptr @SSL_state_string(ptr noundef nonnull %2) #9
  %7 = tail call i64 @rb_str_new_cstr(ptr noundef %6) #9
  %8 = tail call ptr @rb_ruby_verbose_ptr() #9
  %9 = load i64, ptr %8, align 8, !tbaa !10
  %.not6 = icmp eq i64 %9, 0
  br i1 %.not6, label %14, label %10

10:                                               ; preds = %5
  %11 = tail call i64 @rb_str_cat(i64 noundef %7, ptr noundef nonnull @.str.292, i64 noundef 2) #9
  %12 = tail call ptr @SSL_state_string_long(ptr noundef nonnull %2) #9
  %13 = tail call i64 @rb_str_cat_cstr(i64 noundef %7, ptr noundef %12) #9
  br label %14

14:                                               ; preds = %10, %5
  ret i64 %7
}